; Function Attrs: mustprogress nounwind uwtable
define hidden noundef ptr @_ZNK14RotateLeftNode5ValueEP8PhaseGVN(ptr nocapture noundef nonnull readonly align 8 dereferenceable(64) %0, ptr nocapture noundef readonly %1) unnamed_addr #0 align 2 {
  %3 = getelementptr inbounds i8, ptr %0, i64 8
  %4 = load ptr, ptr %3, align 8
  %5 = getelementptr inbounds i8, ptr %4, i64 8
  %6 = load ptr, ptr %5, align 8
  %7 = getelementptr inbounds i8, ptr %1, i64 40
  %8 = load ptr, ptr %7, align 8
  %9 = getelementptr inbounds i8, ptr %6, i64 40
  %10 = load i32, ptr %9, align 8
  %11 = getelementptr inbounds i8, ptr %8, i64 16
  %12 = load ptr, ptr %11, align 8
  %13 = zext i32 %10 to i64
  %14 = getelementptr inbounds ptr, ptr %12, i64 %13
  %15 = load ptr, ptr %14, align 8
  %16 = getelementptr inbounds i8, ptr %4, i64 16
  %17 = load ptr, ptr %16, align 8
  %18 = getelementptr inbounds i8, ptr %17, i64 40
  %19 = load i32, ptr %18, align 8
  %20 = zext i32 %19 to i64
  %21 = getelementptr inbounds ptr, ptr %12, i64 %20
  %22 = load ptr, ptr %21, align 8
  %23 = load ptr, ptr @_ZN4Type3TOPE, align 8
  %24 = icmp eq ptr %15, %23
  %25 = icmp eq ptr %22, %23
  %or.cond = or i1 %24, %25
  br i1 %or.cond, label %76, label %26

26:                                               ; preds = %2
  %27 = getelementptr inbounds i8, ptr %15, i64 16
  %28 = load i32, ptr %27, align 8
  %29 = icmp ne i32 %28, 3
  %.not41 = icmp eq ptr %15, null
  %.not = or i1 %.not41, %29
  br i1 %.not, label %52, label %30

30:                                               ; preds = %26
  %31 = load ptr, ptr @_ZN7TypeInt4ZEROE, align 8
  %32 = icmp eq ptr %15, %31
  br i1 %32, label %76, label %33

33:                                               ; preds = %30
  %34 = icmp eq ptr %22, %31
  br i1 %34, label %76, label %35

35:                                               ; preds = %33
  %36 = getelementptr inbounds i8, ptr %15, i64 24
  %37 = load i32, ptr %36, align 8
  %38 = getelementptr inbounds i8, ptr %15, i64 28
  %39 = load i32, ptr %38, align 4
  %40 = icmp eq i32 %37, %39
  br i1 %40, label %41, label %50

41:                                               ; preds = %35
  %42 = getelementptr inbounds i8, ptr %22, i64 24
  %43 = load i32, ptr %42, align 8
  %44 = getelementptr inbounds i8, ptr %22, i64 28
  %45 = load i32, ptr %44, align 4
  %46 = icmp eq i32 %43, %45
  br i1 %46, label %47, label %50

47:                                               ; preds = %41
  %48 = tail call i32 @llvm.fshl.i32(i32 %37, i32 %37, i32 %43)
  %49 = tail call noundef ptr @_ZN7TypeInt4makeEi(i32 noundef %48) #10
  br label %76

50:                                               ; preds = %41, %35
  %51 = load ptr, ptr @_ZN7TypeInt3INTE, align 8
  br label %76

52:                                               ; preds = %26
  %53 = load ptr, ptr @_ZN8TypeLong4ZEROE, align 8
  %54 = icmp eq ptr %15, %53
  br i1 %54, label %76, label %55

55:                                               ; preds = %52
  %56 = load ptr, ptr @_ZN7TypeInt4ZEROE, align 8
  %57 = icmp eq ptr %22, %56
  br i1 %57, label %76, label %58

58:                                               ; preds = %55
  %59 = getelementptr inbounds i8, ptr %15, i64 24
  %60 = load i64, ptr %59, align 8
  %61 = getelementptr inbounds i8, ptr %15, i64 32
  %62 = load i64, ptr %61, align 8
  %63 = icmp eq i64 %60, %62
  br i1 %63, label %64, label %74

64:                                               ; preds = %58
  %65 = getelementptr inbounds i8, ptr %22, i64 24
  %66 = load i32, ptr %65, align 8
  %67 = getelementptr inbounds i8, ptr %22, i64 28
  %68 = load i32, ptr %67, align 4
  %69 = icmp eq i32 %66, %68
  br i1 %69, label %70, label %74

70:                                               ; preds = %64
  %71 = zext i32 %66 to i64
  %72 = tail call i64 @llvm.fshl.i64(i64 %60, i64 %60, i64 %71)
  %73 = tail call noundef ptr @_ZN8TypeLong4makeEl(i64 noundef %72) #10
  br label %76

74:                                               ; preds = %64, %58
  %75 = load ptr, ptr @_ZN8TypeLong4LONGE, align 8
  br label %76

76:                                               ; preds = %2, %55, %52, %33, %30, %74, %70, %50, %47
  %.0 = phi ptr [ %49, %47 ], [ %51, %50 ], [ %73, %70 ], [ %75, %74 ], [ %31, %30 ], [ %15, %33 ], [ %53, %52 ], [ %15, %55 ], [ %23, %2 ]
  ret ptr %.0
}